target datalayout = "e-m:e-p270:32:32-p271:32:32-p272:64:64-i64:64-i128:128-f80:128-n8:16:32:64-S128"
target triple = "x86_64-pc-linux-gnu"

%class.CodeBlob = type <{ ptr, ptr, ptr, i32, i32, i32, i32, i32, i32, i16, i16, i8, i8, [2 x i8] }>

@.str.7 = private unnamed_addr constant [45 x i8] c"src/hotspot/cpu/x86/stubGenerator_x86_64.cpp\00", align 1
@.str.53 = private unnamed_addr constant [10 x i8] c"Cont thaw\00", align 1
@.str.54 = private unnamed_addr constant [25 x i8] c"Cont thaw return barrier\00", align 1
@.str.55 = private unnamed_addr constant [35 x i8] c"Cont thaw return barrier exception\00", align 1
@_ZN12StubRoutines10_cont_thawE = external global ptr, align 8
@_ZN12StubRoutines19_cont_returnBarrierE = external global ptr, align 8
@_ZN12StubRoutines22_cont_returnBarrierExcE = external global ptr, align 8
@_ZN12StubRoutines26_jfr_write_checkpoint_stubE = external global ptr, align 8
@_ZN12StubRoutines21_jfr_write_checkpointE = external global ptr, align 8
@_ZN12StubRoutines22_jfr_return_lease_stubE = external global ptr, align 8
@_ZN12StubRoutines17_jfr_return_leaseE = external global ptr, align 8
@_ZTV13StubGenerator = linkonce_odr hidden unnamed_addr constant { [4 x ptr] } { [4 x ptr] [ptr null, ptr null, ptr @_ZN17StubCodeGenerator11stub_prologEP12StubCodeDesc, ptr @_ZN17StubCodeGenerator11stub_epilogEP12StubCodeDesc] }, comdat, align 8
@g_assert_poison = external global ptr, align 8
@.str.124 = private unnamed_addr constant [26 x i8] c"unexpected stubs kind: %d\00", align 1

; Function Attrs: mustprogress nounwind uwtable
define linkonce_odr hidden noundef ptr @_ZNK8CodeBlob12header_beginEv(ptr noundef nonnull align 8 dereferenceable(54) %0) #1 comdat align 2 {
  %2 = alloca ptr, align 8
  store ptr %0, ptr %2, align 8
  %3 = load ptr, ptr %2, align 8
  ret ptr %3
}

; Function Attrs: mustprogress nounwind uwtable
define linkonce_odr hidden noundef ptr @_ZNK8CodeBlob10code_beginEv(ptr noundef nonnull align 8 dereferenceable(54) %0) #1 comdat align 2 {
  %2 = alloca ptr, align 8
  store ptr %0, ptr %2, align 8
  %3 = load ptr, ptr %2, align 8
  %4 = call noundef ptr @_ZNK8CodeBlob12header_beginEv(ptr noundef nonnull align 8 dereferenceable(54) %3)
  %5 = getelementptr inbounds %class.CodeBlob, ptr %3, i32 0, i32 6
  %6 = load i32, ptr %5, align 4
  %7 = sext i32 %6 to i64
  %8 = getelementptr inbounds i8, ptr %4, i64 %7
  ret ptr %8
}

; Function Attrs: mustprogress nounwind uwtable
define linkonce_odr hidden noundef ptr @_ZNK11RuntimeStub11entry_pointEv(ptr noundef nonnull align 8 dereferenceable(54) %0) #1 comdat align 2 {
  %2 = alloca ptr, align 8
  store ptr %0, ptr %2, align 8
  %3 = load ptr, ptr %2, align 8
  %4 = call noundef ptr @_ZNK8CodeBlob10code_beginEv(ptr noundef nonnull align 8 dereferenceable(54) %3)
  ret ptr %4
}

; Function Attrs: mustprogress nounwind uwtable
define hidden void @_ZN13StubGenerator18generate_jfr_stubsEv(ptr noundef nonnull align 8 dereferenceable(24) %0) #1 align 2 {
  %2 = alloca ptr, align 8
  store ptr %0, ptr %2, align 8
  %3 = load ptr, ptr %2, align 8
  %4 = call noundef ptr @_ZN13StubGenerator29generate_jfr_write_checkpointEv(ptr noundef nonnull align 8 dereferenceable(24) %3)
  store ptr %4, ptr @_ZN12StubRoutines26_jfr_write_checkpoint_stubE, align 8
  %5 = load ptr, ptr @_ZN12StubRoutines26_jfr_write_checkpoint_stubE, align 8
  %6 = call noundef ptr @_ZNK11RuntimeStub11entry_pointEv(ptr noundef nonnull align 8 dereferenceable(54) %5)
  store ptr %6, ptr @_ZN12StubRoutines21_jfr_write_checkpointE, align 8
  %7 = call noundef ptr @_ZN13StubGenerator25generate_jfr_return_leaseEv(ptr noundef nonnull align 8 dereferenceable(24) %3)
  store ptr %7, ptr @_ZN12StubRoutines22_jfr_return_lease_stubE, align 8
  %8 = load ptr, ptr @_ZN12StubRoutines22_jfr_return_lease_stubE, align 8
  %9 = call noundef ptr @_ZNK11RuntimeStub11entry_pointEv(ptr noundef nonnull align 8 dereferenceable(54) %8)
  store ptr %9, ptr @_ZN12StubRoutines17_jfr_return_leaseE, align 8
  ret void
}

; Function Attrs: mustprogress nounwind uwtable
define hidden noundef ptr @_ZN13StubGenerator37generate_cont_returnBarrier_exceptionEv(ptr noundef nonnull align 8 dereferenceable(24) %0) #1 align 2 {
  %2 = alloca ptr, align 8
  store ptr %0, ptr %2, align 8
  %3 = load ptr, ptr %2, align 8
  %4 = call noundef ptr @_ZN13StubGenerator18generate_cont_thawEPKcN12Continuation9thaw_kindE(ptr noundef nonnull align 8 dereferenceable(24) %3, ptr noundef @.str.55, i32 noundef 2)
  ret ptr %4
}

; Function Attrs: mustprogress nounwind uwtable
define hidden noundef ptr @_ZN13StubGenerator27generate_cont_returnBarrierEv(ptr noundef nonnull align 8 dereferenceable(24) %0) #1 align 2 {
  %2 = alloca ptr, align 8
  store ptr %0, ptr %2, align 8
  %3 = load ptr, ptr %2, align 8
  %4 = call noundef ptr @_ZN13StubGenerator18generate_cont_thawEPKcN12Continuation9thaw_kindE(ptr noundef nonnull align 8 dereferenceable(24) %3, ptr noundef @.str.54, i32 noundef 1)
  ret ptr %4
}

; Function Attrs: mustprogress nounwind uwtable
define hidden noundef ptr @_ZN13StubGenerator18generate_cont_thawEv(ptr noundef nonnull align 8 dereferenceable(24) %0) #1 align 2 {
  %2 = alloca ptr, align 8
  store ptr %0, ptr %2, align 8
  %3 = load ptr, ptr %2, align 8
  %4 = call noundef ptr @_ZN13StubGenerator18generate_cont_thawEPKcN12Continuation9thaw_kindE(ptr noundef nonnull align 8 dereferenceable(24) %3, ptr noundef @.str.53, i32 noundef 0)
  ret ptr %4
}

; Function Attrs: mustprogress nounwind uwtable
define hidden void @_ZN13StubGenerator27generate_continuation_stubsEv(ptr noundef nonnull align 8 dereferenceable(24) %0) #1 align 2 {
  %2 = alloca ptr, align 8
  store ptr %0, ptr %2, align 8
  %3 = load ptr, ptr %2, align 8
  %4 = call noundef ptr @_ZN13StubGenerator18generate_cont_thawEv(ptr noundef nonnull align 8 dereferenceable(24) %3)
  store ptr %4, ptr @_ZN12StubRoutines10_cont_thawE, align 8
  %5 = call noundef ptr @_ZN13StubGenerator27generate_cont_returnBarrierEv(ptr noundef nonnull align 8 dereferenceable(24) %3)
  store ptr %5, ptr @_ZN12StubRoutines19_cont_returnBarrierE, align 8
  %6 = call noundef ptr @_ZN13StubGenerator37generate_cont_returnBarrier_exceptionEv(ptr noundef nonnull align 8 dereferenceable(24) %3)
  store ptr %6, ptr @_ZN12StubRoutines22_cont_returnBarrierExcE, align 8
  call void @_ZN13StubGenerator18generate_jfr_stubsEv(ptr noundef nonnull align 8 dereferenceable(24) %3)
  ret void
}

; Function Attrs: mustprogress nounwind uwtable
define hidden void @_ZN13StubGeneratorC2EP10CodeBufferN17StubCodeGenerator9StubsKindE(ptr noundef nonnull align 8 dereferenceable(24) %0, ptr noundef %1, i32 noundef %2) unnamed_addr #1 align 2 {
  %4 = alloca ptr, align 8
  %5 = alloca ptr, align 8
  %6 = alloca i32, align 4
  store ptr %0, ptr %4, align 8
  store ptr %1, ptr %5, align 8
  store i32 %2, ptr %6, align 4
  %7 = load ptr, ptr %4, align 8
  %8 = load ptr, ptr %5, align 8
  call void @_ZN17StubCodeGeneratorC2EP10CodeBufferb(ptr noundef nonnull align 8 dereferenceable(24) %7, ptr noundef %8, i1 noundef zeroext false)
  store ptr getelementptr inbounds inrange(-16, 16) ({ [4 x ptr] }, ptr @_ZTV13StubGenerator, i32 0, i32 0, i32 2), ptr %7, align 8
  %9 = load i32, ptr %6, align 4
  switch i32 %9, label %14 [
    i32 0, label %10
    i32 1, label %11
    i32 2, label %12
    i32 3, label %13
  ]

10:                                               ; preds = %3
  call void @_ZN13StubGenerator22generate_initial_stubsEv(ptr noundef nonnull align 8 dereferenceable(24) %7)
  br label %19

11:                                               ; preds = %3
  call void @_ZN13StubGenerator27generate_continuation_stubsEv(ptr noundef nonnull align 8 dereferenceable(24) %7)
  br label %19

12:                                               ; preds = %3
  call void @_ZN13StubGenerator23generate_compiler_stubsEv(ptr noundef nonnull align 8 dereferenceable(24) %7)
  br label %19

13:                                               ; preds = %3
  call void @_ZN13StubGenerator20generate_final_stubsEv(ptr noundef nonnull align 8 dereferenceable(24) %7)
  br label %19

14:                                               ; preds = %3
  br label %15

15:                                               ; preds = %14
  %16 = load ptr, ptr @g_assert_poison, align 8
  store i8 88, ptr %16, align 1
  %17 = load i32, ptr %6, align 4
  call void (i32, ptr, i32, ptr, ...) @_Z12report_fatal11VMErrorTypePKciS1_z(i32 noundef -536870912, ptr noundef @.str.7, i32 noundef 4457, ptr noundef @.str.124, i32 noundef %17) #8
  unreachable

18:                                               ; No predecessors!
  br label %19

19:                                               ; preds = %18, %13, %12, %11, %10
  ret void
}