; Function Attrs: mustprogress nounwind uwtable
define hidden void @_ZN13StubGeneratorC2EP10CodeBufferN17StubCodeGenerator9StubsKindE(ptr noundef nonnull align 8 dereferenceable(24) %0, ptr noundef %1, i32 noundef %2) unnamed_addr #0 align 2 {
  tail call void @_ZN17StubCodeGeneratorC2EP10CodeBufferb(ptr noundef nonnull align 8 dereferenceable(24) %0, ptr noundef %1, i1 noundef zeroext false) #12
  store ptr getelementptr inbounds inrange(-16, 16) (i8, ptr @_ZTV13StubGenerator, i64 16), ptr %0, align 8
  switch i32 %2, label %21 [
    i32 0, label %4
    i32 1, label %5
    i32 2, label %19
    i32 3, label %20
  ]

4:                                                ; preds = %3
  tail call void @_ZN13StubGenerator22generate_initial_stubsEv(ptr noundef nonnull align 8 dereferenceable(24) %0)
  br label %23

5:                                                ; preds = %3
  %6 = tail call noundef ptr @_ZN13StubGenerator18generate_cont_thawEPKcN12Continuation9thaw_kindE(ptr noundef nonnull align 8 dereferenceable(24) %0, ptr noundef nonnull @.str.53, i32 noundef 0)
  store ptr %6, ptr @_ZN12StubRoutines10_cont_thawE, align 8
  %7 = tail call noundef ptr @_ZN13StubGenerator18generate_cont_thawEPKcN12Continuation9thaw_kindE(ptr noundef nonnull align 8 dereferenceable(24) %0, ptr noundef nonnull @.str.54, i32 noundef 1)
  store ptr %7, ptr @_ZN12StubRoutines19_cont_returnBarrierE, align 8
  %8 = tail call noundef ptr @_ZN13StubGenerator18generate_cont_thawEPKcN12Continuation9thaw_kindE(ptr noundef nonnull align 8 dereferenceable(24) %0, ptr noundef nonnull @.str.55, i32 noundef 2)
  store ptr %8, ptr @_ZN12StubRoutines22_cont_returnBarrierExcE, align 8
  %9 = tail call noundef ptr @_ZN13StubGenerator29generate_jfr_write_checkpointEv(ptr nonnull readnone align 8 poison)
  store ptr %9, ptr @_ZN12StubRoutines26_jfr_write_checkpoint_stubE, align 8
  %10 = getelementptr inbounds i8, ptr %9, i64 36
  %11 = load i32, ptr %10, align 4
  %12 = sext i32 %11 to i64
  %13 = getelementptr inbounds i8, ptr %9, i64 %12
  store ptr %13, ptr @_ZN12StubRoutines21_jfr_write_checkpointE, align 8
  %14 = tail call noundef ptr @_ZN13StubGenerator25generate_jfr_return_leaseEv(ptr nonnull readnone align 8 poison)
  store ptr %14, ptr @_ZN12StubRoutines22_jfr_return_lease_stubE, align 8
  %15 = getelementptr inbounds i8, ptr %14, i64 36
  %16 = load i32, ptr %15, align 4
  %17 = sext i32 %16 to i64
  %18 = getelementptr inbounds i8, ptr %14, i64 %17
  store ptr %18, ptr @_ZN12StubRoutines17_jfr_return_leaseE, align 8
  br label %23

19:                                               ; preds = %3
  tail call void @_ZN13StubGenerator23generate_compiler_stubsEv(ptr noundef nonnull align 8 dereferenceable(24) %0)
  br label %23

20:                                               ; preds = %3
  tail call void @_ZN13StubGenerator20generate_final_stubsEv(ptr noundef nonnull align 8 dereferenceable(24) %0)
  br label %23

21:                                               ; preds = %3
  %22 = load ptr, ptr @g_assert_poison, align 8
  store i8 88, ptr %22, align 1
  tail call void (i32, ptr, i32, ptr, ...) @_Z12report_fatal11VMErrorTypePKciS1_z(i32 noundef -536870912, ptr noundef nonnull @.str.7, i32 noundef 4457, ptr noundef nonnull @.str.124, i32 noundef %2) #13
  unreachable

23:                                               ; preds = %20, %19, %5, %4
  ret void
}